target datalayout = "e-m:e-p270:32:32-p271:32:32-p272:64:64-i64:64-i128:128-f80:128-n8:16:32:64-S128"
target triple = "x86_64-pc-linux-gnu"

%union.ImGL3WProcs = type { [59 x ptr] }
%struct.anon.0 = type { ptr, ptr, ptr, ptr, ptr, ptr, ptr, ptr, ptr, ptr, ptr, ptr, ptr, ptr, ptr, ptr, ptr, ptr, ptr, ptr, ptr, ptr, ptr, ptr, ptr, ptr, ptr, ptr, ptr, ptr, ptr, ptr, ptr, ptr, ptr, ptr, ptr, ptr, ptr, ptr, ptr, ptr, ptr, ptr, ptr, ptr, ptr, ptr, ptr, ptr, ptr, ptr, ptr, ptr, ptr, ptr, ptr, ptr, ptr }
%struct.ImGuiIO = type { i32, i32, %struct.ImVec2, float, float, ptr, ptr, ptr, ptr, float, i8, ptr, %struct.ImVec2, i8, i8, i8, i8, i8, i8, i8, i8, i8, i8, float, float, float, float, float, float, i8, i8, i8, i8, i8, i8, i8, i8, i8, i8, ptr, ptr, ptr, ptr, ptr, i8, i8, i8, i8, i8, i8, i8, float, i32, i32, i32, i32, %struct.ImVec2, ptr, %struct.ImVec2, [5 x i8], float, float, i32, i8, i8, i8, i8, i32, [154 x %struct.ImGuiKeyData], i8, %struct.ImVec2, [5 x %struct.ImVec2], [5 x double], [5 x i8], [5 x i8], [5 x i16], [5 x i16], [5 x i8], [5 x i8], [5 x i8], i8, i8, [5 x float], [5 x float], [5 x float], float, i8, i8, i8, i8, i16, %struct.ImVector }
%struct.ImGuiKeyData = type { i8, float, float, float }
%struct.ImVec2 = type { float, float }
%struct.ImVector = type { i32, i32, ptr }
%struct.ImGui_ImplOpenGL3_Data = type <{ i32, [32 x i8], i8, i8, i8, i8, i32, i32, i32, i32, i32, i32, i32, i32, i32, i32, i64, i64, i8, i8, i8, [5 x i8] }>
%struct.ImVec4 = type { float, float, float, float }
%struct.ImFontAtlas = type <{ i32, [4 x i8], ptr, i32, i32, i8, [7 x i8], ptr, i8, i8, [6 x i8], ptr, ptr, i32, i32, %struct.ImVec2, %struct.ImVec2, %struct.ImVector.8, %struct.ImVector.9, %struct.ImVector.10, [64 x %struct.ImVec4], ptr, i32, i32, i32, [4 x i8] }>
%struct.ImVector.8 = type { i32, i32, ptr }
%struct.ImVector.9 = type { i32, i32, ptr }
%struct.ImVector.10 = type { i32, i32, ptr }

@imgl3wProcs = dso_local global %union.ImGL3WProcs zeroinitializer, align 8

; Function Attrs: mustprogress nounwind uwtable
define linkonce_odr dso_local void @_ZN11ImFontAtlas8SetTexIDEPv(ptr noundef nonnull align 8 dereferenceable(1180) %0, ptr noundef %1) #3 comdat align 2 {
  %3 = alloca ptr, align 8
  %4 = alloca ptr, align 8
  store ptr %0, ptr %3, align 8, !tbaa !125
  store ptr %1, ptr %4, align 8, !tbaa !8
  %5 = load ptr, ptr %3, align 8
  %6 = load ptr, ptr %4, align 8, !tbaa !8
  %7 = getelementptr inbounds nuw %struct.ImFontAtlas, ptr %5, i32 0, i32 2
  store ptr %6, ptr %7, align 8, !tbaa !126
  ret void
}

; Function Attrs: mustprogress uwtable
define internal noundef ptr @_ZL32ImGui_ImplOpenGL3_GetBackendDatav() #0 {
  %1 = call noundef ptr @_ZN5ImGui17GetCurrentContextEv()
  %2 = icmp ne ptr %1, null
  br i1 %2, label %3, label %7

3:                                                ; preds = %0
  %4 = call noundef nonnull align 8 dereferenceable(2944) ptr @_ZN5ImGui5GetIOEv()
  %5 = getelementptr inbounds nuw %struct.ImGuiIO, ptr %4, i32 0, i32 42
  %6 = load ptr, ptr %5, align 8, !tbaa !26
  br label %8

7:                                                ; preds = %0
  br label %8

8:                                                ; preds = %7, %3
  %9 = phi ptr [ %6, %3 ], [ null, %7 ]
  ret ptr %9
}

; Function Attrs: mustprogress uwtable
define dso_local noundef zeroext i1 @_Z36ImGui_ImplOpenGL3_CreateFontsTexturev() #0 {
  %1 = alloca ptr, align 8
  %2 = alloca ptr, align 8
  %3 = alloca ptr, align 8
  %4 = alloca i32, align 4
  %5 = alloca i32, align 4
  %6 = alloca i32, align 4
  call void @llvm.lifetime.start.p0(i64 8, ptr %1) #11
  %7 = call noundef nonnull align 8 dereferenceable(2944) ptr @_ZN5ImGui5GetIOEv()
  store ptr %7, ptr %1, align 8, !tbaa !20
  call void @llvm.lifetime.start.p0(i64 8, ptr %2) #11
  %8 = call noundef ptr @_ZL32ImGui_ImplOpenGL3_GetBackendDatav()
  store ptr %8, ptr %2, align 8, !tbaa !24
  call void @llvm.lifetime.start.p0(i64 8, ptr %3) #11
  call void @llvm.lifetime.start.p0(i64 4, ptr %4) #11
  call void @llvm.lifetime.start.p0(i64 4, ptr %5) #11
  %9 = load ptr, ptr %1, align 8, !tbaa !20
  %10 = getelementptr inbounds nuw %struct.ImGuiIO, ptr %9, i32 0, i32 8
  %11 = load ptr, ptr %10, align 8, !tbaa !61
  call void @_ZN11ImFontAtlas18GetTexDataAsRGBA32EPPhPiS2_S2_(ptr noundef nonnull align 8 dereferenceable(1180) %11, ptr noundef %3, ptr noundef %4, ptr noundef %5, ptr noundef null)
  call void @llvm.lifetime.start.p0(i64 4, ptr %6) #11
  %12 = load ptr, ptr getelementptr inbounds nuw (%struct.anon.0, ptr @imgl3wProcs, i32 0, i32 34), align 8, !tbaa !14
  call void %12(i32 noundef 32873, ptr noundef %6)
  %13 = load ptr, ptr getelementptr inbounds nuw (%struct.anon.0, ptr @imgl3wProcs, i32 0, i32 30), align 8, !tbaa !14
  %14 = load ptr, ptr %2, align 8, !tbaa !24
  %15 = getelementptr inbounds nuw %struct.ImGui_ImplOpenGL3_Data, ptr %14, i32 0, i32 7
  call void %13(i32 noundef 1, ptr noundef %15)
  %16 = load ptr, ptr getelementptr inbounds nuw (%struct.anon.0, ptr @imgl3wProcs, i32 0, i32 4), align 8, !tbaa !14
  %17 = load ptr, ptr %2, align 8, !tbaa !24
  %18 = getelementptr inbounds nuw %struct.ImGui_ImplOpenGL3_Data, ptr %17, i32 0, i32 7
  %19 = load i32, ptr %18, align 4, !tbaa !55
  call void %16(i32 noundef 3553, i32 noundef %19)
  %20 = load ptr, ptr getelementptr inbounds nuw (%struct.anon.0, ptr @imgl3wProcs, i32 0, i32 53), align 8, !tbaa !14
  call void %20(i32 noundef 3553, i32 noundef 10241, i32 noundef 9729)
  %21 = load ptr, ptr getelementptr inbounds nuw (%struct.anon.0, ptr @imgl3wProcs, i32 0, i32 53), align 8, !tbaa !14
  call void %21(i32 noundef 3553, i32 noundef 10240, i32 noundef 9729)
  %22 = load ptr, ptr getelementptr inbounds nuw (%struct.anon.0, ptr @imgl3wProcs, i32 0, i32 47), align 8, !tbaa !14
  call void %22(i32 noundef 3314, i32 noundef 0)
  %23 = load ptr, ptr getelementptr inbounds nuw (%struct.anon.0, ptr @imgl3wProcs, i32 0, i32 52), align 8, !tbaa !14
  %24 = load i32, ptr %4, align 4, !tbaa !4
  %25 = load i32, ptr %5, align 4, !tbaa !4
  %26 = load ptr, ptr %3, align 8, !tbaa !10
  call void %23(i32 noundef 3553, i32 noundef 0, i32 noundef 6408, i32 noundef %24, i32 noundef %25, i32 noundef 0, i32 noundef 6408, i32 noundef 5121, ptr noundef %26)
  %27 = load ptr, ptr %1, align 8, !tbaa !20
  %28 = getelementptr inbounds nuw %struct.ImGuiIO, ptr %27, i32 0, i32 8
  %29 = load ptr, ptr %28, align 8, !tbaa !61
  %30 = load ptr, ptr %2, align 8, !tbaa !24
  %31 = getelementptr inbounds nuw %struct.ImGui_ImplOpenGL3_Data, ptr %30, i32 0, i32 7
  %32 = load i32, ptr %31, align 4, !tbaa !55
  %33 = zext i32 %32 to i64
  %34 = inttoptr i64 %33 to ptr
  call void @_ZN11ImFontAtlas8SetTexIDEPv(ptr noundef nonnull align 8 dereferenceable(1180) %29, ptr noundef %34)
  %35 = load ptr, ptr getelementptr inbounds nuw (%struct.anon.0, ptr @imgl3wProcs, i32 0, i32 4), align 8, !tbaa !14
  %36 = load i32, ptr %6, align 4, !tbaa !4
  call void %35(i32 noundef 3553, i32 noundef %36)
  call void @llvm.lifetime.end.p0(i64 4, ptr %6) #11
  call void @llvm.lifetime.end.p0(i64 4, ptr %5) #11
  call void @llvm.lifetime.end.p0(i64 4, ptr %4) #11
  call void @llvm.lifetime.end.p0(i64 8, ptr %3) #11
  call void @llvm.lifetime.end.p0(i64 8, ptr %2) #11
  call void @llvm.lifetime.end.p0(i64 8, ptr %1) #11
  ret i1 true
}