; Function Attrs: mustprogress uwtable
define dso_local noundef zeroext i1 @_Z36ImGui_ImplOpenGL3_CreateFontsTexturev() local_unnamed_addr #0 {
  %1 = alloca ptr, align 8
  %2 = alloca i32, align 4
  %3 = alloca i32, align 4
  %4 = alloca i32, align 4
  %5 = tail call noundef nonnull align 8 dereferenceable(2944) ptr @_ZN5ImGui5GetIOEv()
  %6 = tail call noundef ptr @_ZN5ImGui17GetCurrentContextEv()
  %.not.i = icmp eq ptr %6, null
  br i1 %.not.i, label %_ZL32ImGui_ImplOpenGL3_GetBackendDatav.exit, label %7

7:                                                ; preds = %0
  %8 = tail call noundef nonnull align 8 dereferenceable(2944) ptr @_ZN5ImGui5GetIOEv()
  %9 = getelementptr inbounds nuw i8, ptr %8, i64 152
  %10 = load ptr, ptr %9, align 8, !tbaa !19
  br label %_ZL32ImGui_ImplOpenGL3_GetBackendDatav.exit

_ZL32ImGui_ImplOpenGL3_GetBackendDatav.exit:      ; preds = %0, %7
  %11 = phi ptr [ %10, %7 ], [ null, %0 ]
  call void @llvm.lifetime.start.p0(i64 8, ptr nonnull %1) #17
  call void @llvm.lifetime.start.p0(i64 4, ptr nonnull %2) #17
  call void @llvm.lifetime.start.p0(i64 4, ptr nonnull %3) #17
  %12 = getelementptr inbounds nuw i8, ptr %5, i64 48
  %13 = load ptr, ptr %12, align 8, !tbaa !51
  call void @_ZN11ImFontAtlas18GetTexDataAsRGBA32EPPhPiS2_S2_(ptr noundef nonnull align 8 dereferenceable(1180) %13, ptr noundef nonnull %1, ptr noundef nonnull %2, ptr noundef nonnull %3, ptr noundef null)
  call void @llvm.lifetime.start.p0(i64 4, ptr nonnull %4) #17
  %14 = load ptr, ptr getelementptr inbounds nuw (i8, ptr @imgl3wProcs, i64 272), align 8, !tbaa !10
  call void %14(i32 noundef 32873, ptr noundef nonnull %4)
  %15 = load ptr, ptr getelementptr inbounds nuw (i8, ptr @imgl3wProcs, i64 240), align 8, !tbaa !10
  %16 = getelementptr inbounds nuw i8, ptr %11, i64 44
  call void %15(i32 noundef 1, ptr noundef nonnull %16)
  %17 = load ptr, ptr getelementptr inbounds nuw (i8, ptr @imgl3wProcs, i64 32), align 8, !tbaa !10
  %18 = load i32, ptr %16, align 4, !tbaa !50
  call void %17(i32 noundef 3553, i32 noundef %18)
  %19 = load ptr, ptr getelementptr inbounds nuw (i8, ptr @imgl3wProcs, i64 424), align 8, !tbaa !10
  call void %19(i32 noundef 3553, i32 noundef 10241, i32 noundef 9729)
  %20 = load ptr, ptr getelementptr inbounds nuw (i8, ptr @imgl3wProcs, i64 424), align 8, !tbaa !10
  call void %20(i32 noundef 3553, i32 noundef 10240, i32 noundef 9729)
  %21 = load ptr, ptr getelementptr inbounds nuw (i8, ptr @imgl3wProcs, i64 376), align 8, !tbaa !10
  call void %21(i32 noundef 3314, i32 noundef 0)
  %22 = load ptr, ptr getelementptr inbounds nuw (i8, ptr @imgl3wProcs, i64 416), align 8, !tbaa !10
  %23 = load i32, ptr %2, align 4, !tbaa !32
  %24 = load i32, ptr %3, align 4, !tbaa !32
  %25 = load ptr, ptr %1, align 8, !tbaa !8
  call void %22(i32 noundef 3553, i32 noundef 0, i32 noundef 6408, i32 noundef %23, i32 noundef %24, i32 noundef 0, i32 noundef 6408, i32 noundef 5121, ptr noundef %25)
  %26 = load ptr, ptr %12, align 8, !tbaa !51
  %27 = load i32, ptr %16, align 4, !tbaa !50
  %28 = zext i32 %27 to i64
  %29 = inttoptr i64 %28 to ptr
  %30 = getelementptr inbounds nuw i8, ptr %26, i64 8
  store ptr %29, ptr %30, align 8, !tbaa !52
  %31 = load ptr, ptr getelementptr inbounds nuw (i8, ptr @imgl3wProcs, i64 32), align 8, !tbaa !10
  %32 = load i32, ptr %4, align 4, !tbaa !32
  call void %31(i32 noundef 3553, i32 noundef %32)
  call void @llvm.lifetime.end.p0(i64 4, ptr nonnull %4) #17
  call void @llvm.lifetime.end.p0(i64 4, ptr nonnull %3) #17
  call void @llvm.lifetime.end.p0(i64 4, ptr nonnull %2) #17
  call void @llvm.lifetime.end.p0(i64 8, ptr nonnull %1) #17
  ret i1 true
}